; Function Attrs: mustprogress nofree norecurse nosync nounwind memory(argmem: readwrite) uwtable
define hidden noundef nonnull align 4 dereferenceable(16) ptr @_ZN2cv6dynafudVERNS0_10QuaternionEf(ptr noundef nonnull returned align 4 dereferenceable(16) %0, float noundef %1) local_unnamed_addr #7 {
  %3 = fdiv float 1.000000e+00, %1
  br label %4

4:                                                ; preds = %4, %2
  %indvars.iv.i = phi i64 [ 0, %2 ], [ %indvars.iv.next.i, %4 ]
  %5 = getelementptr inbounds nuw [4 x float], ptr %0, i64 0, i64 %indvars.iv.i
  %6 = load float, ptr %5, align 4, !tbaa !3
  %7 = fmul float %3, %6
  store float %7, ptr %5, align 4, !tbaa !3
  %indvars.iv.next.i = add nuw nsw i64 %indvars.iv.i, 1
  %exitcond.not.i = icmp eq i64 %indvars.iv.next.i, 4
  br i1 %exitcond.not.i, label %_ZN2cvdVIfLi4EEERNS_3VecIT_XT0_EEES4_f.exit, label %4, !llvm.loop !30

_ZN2cvdVIfLi4EEERNS_3VecIT_XT0_EEES4_f.exit:      ; preds = %4
  ret ptr %0
}